(dp0
S'guest'
p1
ccopy_reg
_reconstructor
p2
(ccls.appWidgets.user_account.user_acct_utils
user_obj
p3
c__builtin__
object
p4
Ntp5
Rp6
(dp7
S'_userName'
p8
g1
sS'data_dir'
p9
NsS'_sample_ids'
p10
(dp11
sS'_description'
p12
S''
p13
sS'_access_lvl'
p14
S'GUEST'
p15
sS'_seq_num'
p16
I0
sS'_cur_sample_id'
p17
NsS'_data_dir'
p18
NsS'_date_created'
p19
cdatetime
date
p20
(S'\x07\xe0\x0c\x02'
p21
tp22
Rp23
sS'_password'
p24
S'BZh91AY&SY\x0c\x0e*\xe6\x00\x00\x03\x19\x80\x08\x00 \x00\n\x86\x8e\x80 \x001\x03@\xd0)\x80\x1e\xa6<\xd0Tn(\x1c.\xe4\x8ap\xa1 \x18\x1cU\xcc'
p25
sS'_enabled'
p26
I01
sS'_group'
p27
S'visitor'
p28
sbs.